(lp0
(S'Thursday'
p1
(lp2
(I759
I82322
tp3
atp4
a(S'Saturday'
p5
(lp6
(I990
I4830
tp7
a(I7179
I7318
tp8
atp9
a(S'Tuesday'
p10
(lp11
(I3756
I79538
tp12
atp13
a(S'Friday'
p14
(lp15
(I3645
I79473
tp16
a(I81178
I86016
tp17
atp18
a(S'Wednesday'
p19
(lp20
(I218
I79338
tp21
atp22
a(S'Monday'
p23
(lp24
(I60086
I86374
tp25
atp26
a.