(lp0
(S'Thursday'
p1
(lp2
(I581
I86212
tp3
atp4
a(S'Saturday'
p5
(lp6
(I800
I16612
tp7
a(I3145
I84379
tp8
atp9
a(S'Tuesday'
p10
(lp11
(I0
I83556
tp12
atp13
a(S'Friday'
p14
(lp15
(I3617
I83535
tp16
a(I81177
I86035
tp17
atp18
a(S'Sunday'
p19
(lp20
(I1574
I83391
tp21
atp22
a(S'Wednesday'
p23
(lp24
(I159
I83310
tp25
atp26
a(S'Monday'
p27
(lp28
(I680
I86399
tp29
atp30
a.