(lp0
(S'Friday'
p1
(lp2
(I3645
I79473
tp3
a(I81178
I86016
tp4
atp5
a(S'Thursday'
p6
(lp7
(I759
I82322
tp8
atp9
a(S'Saturday'
p10
(lp11
(I990
I4830
tp12
a(I7179
I7318
tp13
atp14
a(S'Monday'
p15
(lp16
(I60086
I86374
tp17
atp18
a(S'Tuesday'
p19
(lp20
(I3756
I79538
tp21
atp22
a(S'Wednesday'
p23
(lp24
(I218
I79338
tp25
atp26
a.