(lp0
(S'90:b6:86:d0:62:b5'
p1
(lp2
V2016-06-11
p3
aV00:16:23
p4
aV2016-06-11
p5
aV00:16:23
p6
aV2016-06-11
p7
aV00:16:23
p8
aV2016-06-11
p9
aV00:16:23
p10
aV2016-06-11
p11
aV00:16:23
p12
aV2016-06-11
p13
aV00:16:23
p14
aV2016-06-11
p15
aV00:16:24
p16
aV2016-06-11
p17
aV00:16:24
p18
aV2016-06-11
p19
aV00:16:24
p20
aV2016-06-11
p21
aV00:16:24
p22
aV2016-06-11
p23
aV00:16:24
p24
aV2016-06-11
p25
aV00:16:24
p26
aV2016-06-11
p27
aV00:16:24
p28
aV2016-06-11
p29
aV00:16:24
p30
aV2016-06-11
p31
aV00:16:24
p32
aV2016-06-11
p33
aV00:16:24
p34
aV2016-06-11
p35
aV00:16:24
p36
aV2016-06-11
p37
aV00:16:24
p38
aV2016-06-11
p39
aV00:16:24
p40
aV2016-06-11
p41
aV00:16:24
p42
aV2016-06-11
p43
aV00:16:24
p44
aV2016-06-11
p45
aV00:16:24
p46
aV2016-06-11
p47
aV00:16:24
p48
aV2016-06-11
p49
aV00:16:24
p50
aV2016-06-11
p51
aV00:16:24
p52
aV2016-06-11
p53
aV00:16:24
p54
aV2016-06-11
p55
aV00:16:24
p56
aV2016-06-11
p57
aV00:16:24
p58
atp59
a.