(lp0
(S'Friday'
p1
(lp2
(I3617
I83535
tp3
a(I81202
I86020
tp4
atp5
a(S'Thursday'
p6
(lp7
(I582
I86209
tp8
atp9
a(S'Sunday'
p10
(lp11
(I1574
I83392
tp12
atp13
a(S'Saturday'
p14
(lp15
(I800
I16611
tp16
a(I3147
I84378
tp17
atp18
a(S'Monday'
p19
(lp20
(I680
I86399
tp21
atp22
a(S'Tuesday'
p23
(lp24
(I2
I83556
tp25
atp26
a(S'Wednesday'
p27
(lp28
(I167
I83220
tp29
atp30
a.