(lp0
(S'Friday'
p1
(lp2
(I81198
I86026
tp3
a(I3617
I83533
tp4
atp5
a(S'Thursday'
p6
(lp7
(I582
I86206
tp8
atp9
a(S'Sunday'
p10
(lp11
(I1574
I83391
tp12
atp13
a(S'Saturday'
p14
(lp15
(I805
I16611
tp16
a(I3147
I84376
tp17
atp18
a(S'Monday'
p19
(lp20
(I681
I86399
tp21
atp22
a(S'Tuesday'
p23
(lp24
(I0
I83552
tp25
atp26
a(S'Wednesday'
p27
(lp28
(I164
I83268
tp29
atp30
a.