(lp0
(S'Friday'
p1
(lp2
(I81177
I86035
tp3
a(I3617
I83535
tp4
atp5
a(S'Thursday'
p6
(lp7
(I581
I86212
tp8
atp9
a(S'Sunday'
p10
(lp11
(I1575
I83392
tp12
atp13
a(S'Saturday'
p14
(lp15
(I3145
I84379
tp16
a(I800
I16612
tp17
atp18
a(S'Monday'
p19
(lp20
(I680
I86399
tp21
atp22
a(S'Tuesday'
p23
(lp24
(I0
I83556
tp25
atp26
a(S'Wednesday'
p27
(lp28
(I159
I83310
tp29
atp30
a.